target datalayout = "e-m:e-p270:32:32-p271:32:32-p272:64:64-i64:64-i128:128-f80:128-n8:16:32:64-S128"
target triple = "x86_64-pc-linux-gnu"

; Function Attrs: nounwind uwtable
define ptr @BIO_s_accept() #0 {
  ret ptr @methods_acceptp
}

; Function Attrs: nounwind uwtable
define ptr @BIO_new_accept(ptr noundef %0) #0 {
  %2 = alloca ptr, align 8
  %3 = alloca ptr, align 8
  %4 = alloca ptr, align 8
  %5 = alloca i32, align 4
  store ptr %0, ptr %3, align 8, !tbaa !3
  call void @llvm.lifetime.start.p0(i64 8, ptr %4) #6
  %6 = call ptr @BIO_s_accept()
  %7 = call ptr @BIO_new(ptr noundef %6)
  store ptr %7, ptr %4, align 8, !tbaa !8
  %8 = load ptr, ptr %4, align 8, !tbaa !8
  %9 = icmp eq ptr %8, null
  br i1 %9, label %10, label %11

10:                                               ; preds = %1
  store ptr null, ptr %2, align 8
  store i32 1, ptr %5, align 4
  br label %21

11:                                               ; preds = %1
  %12 = load ptr, ptr %4, align 8, !tbaa !8
  %13 = load ptr, ptr %3, align 8, !tbaa !3
  %14 = call i64 @BIO_ctrl(ptr noundef %12, i32 noundef 118, i64 noundef 0, ptr noundef %13)
  %15 = icmp sgt i64 %14, 0
  br i1 %15, label %16, label %18

16:                                               ; preds = %11
  %17 = load ptr, ptr %4, align 8, !tbaa !8
  store ptr %17, ptr %2, align 8
  store i32 1, ptr %5, align 4
  br label %21

18:                                               ; preds = %11
  %19 = load ptr, ptr %4, align 8, !tbaa !8
  %20 = call i32 @BIO_free(ptr noundef %19)
  store ptr null, ptr %2, align 8
  store i32 1, ptr %5, align 4
  br label %21

21:                                               ; preds = %18, %16, %10
  call void @llvm.lifetime.end.p0(i64 8, ptr %4) #6
  %22 = load ptr, ptr %2, align 8
  ret ptr %22
}