; Function Attrs: nounwind uwtable
define ptr @BIO_new_accept(ptr noundef %0) local_unnamed_addr #1 {
  %2 = tail call ptr @BIO_new(ptr noundef nonnull @methods_acceptp) #7
  %3 = icmp eq ptr %2, null
  br i1 %3, label %9, label %4

4:                                                ; preds = %1
  %5 = tail call i64 @BIO_ctrl(ptr noundef nonnull %2, i32 noundef 118, i64 noundef 0, ptr noundef %0) #7
  %6 = icmp sgt i64 %5, 0
  br i1 %6, label %9, label %7

7:                                                ; preds = %4
  %8 = tail call i32 @BIO_free(ptr noundef nonnull %2) #7
  br label %9

9:                                                ; preds = %4, %1, %7
  %.0 = phi ptr [ null, %7 ], [ null, %1 ], [ %2, %4 ]
  ret ptr %.0
}